; Function Attrs: nounwind uwtable
define internal i32 @HeapCCollection_traverse(ptr noundef %0, ptr noundef readonly captures(none) %1, ptr noundef %2) #0 {
  %4 = tail call ptr @PyObject_GetItemData(ptr noundef %0) #8
  %.not = icmp eq ptr %4, null
  br i1 %.not, label %.loopexit, label %.preheader

.preheader:                                       ; preds = %3
  %5 = getelementptr i8, ptr %0, i64 8
  %.val4.i25 = load ptr, ptr %5, align 8, !tbaa !9
  %.not.i26 = icmp eq ptr %.val4.i25, @PyLong_Type
  br i1 %.not.i26, label %._crit_edge, label %.lr.ph

.lr.ph:                                           ; preds = %.preheader
  %6 = getelementptr inbounds nuw i8, ptr %0, i64 16
  br label %7

._crit_edge:                                      ; preds = %15, %.preheader
  tail call void @__assert_fail(ptr noundef nonnull @.str.81, ptr noundef nonnull @.str.82, i32 noundef 282, ptr noundef nonnull @__PRETTY_FUNCTION__.Py_SIZE) #10
  unreachable

7:                                                ; preds = %.lr.ph, %15
  %.val4.i30 = phi ptr [ %.val4.i25, %.lr.ph ], [ %.val4.i, %15 ]
  %.01627 = phi i64 [ 0, %.lr.ph ], [ %16, %15 ]
  %.not3.i = icmp eq ptr %.val4.i30, @PyBool_Type
  br i1 %.not3.i, label %8, label %Py_SIZE.exit

8:                                                ; preds = %7
  tail call void @__assert_fail(ptr noundef nonnull @.str.83, ptr noundef nonnull @.str.82, i32 noundef 283, ptr noundef nonnull @__PRETTY_FUNCTION__.Py_SIZE) #10
  unreachable

Py_SIZE.exit:                                     ; preds = %7
  %9 = load i64, ptr %6, align 8, !tbaa !49
  %.not24 = icmp slt i64 %.01627, %9
  br i1 %.not24, label %10, label %.loopexit

10:                                               ; preds = %Py_SIZE.exit
  %11 = getelementptr ptr, ptr %4, i64 %.01627
  %12 = load ptr, ptr %11, align 8, !tbaa !23
  %.not22 = icmp eq ptr %12, null
  br i1 %.not22, label %15, label %13

13:                                               ; preds = %10
  %14 = tail call i32 %1(ptr noundef nonnull %12, ptr noundef %2) #8
  %.not23 = icmp eq i32 %14, 0
  br i1 %.not23, label %._crit_edge29, label %.loopexit

._crit_edge29:                                    ; preds = %13
  %.val4.i.pre = load ptr, ptr %5, align 8, !tbaa !9
  br label %15

15:                                               ; preds = %._crit_edge29, %10
  %.val4.i = phi ptr [ %.val4.i.pre, %._crit_edge29 ], [ %.val4.i30, %10 ]
  %16 = add nuw nsw i64 %.01627, 1
  %.not.i = icmp eq ptr %.val4.i, @PyLong_Type
  br i1 %.not.i, label %._crit_edge, label %7, !llvm.loop !63

.loopexit:                                        ; preds = %13, %Py_SIZE.exit, %3
  %.0 = phi i32 [ -1, %3 ], [ 0, %Py_SIZE.exit ], [ %14, %13 ]
  ret i32 %.0
}